; ModuleID = 'source-C-CXX/54/250.c'
source_filename = "source-C-CXX/54/250.c"
target datalayout = "e-m:e-p270:32:32-p271:32:32-p272:64:64-i64:64-f80:128-n8:16:32:64-S128"
target triple = "x86_64-pc-linux-gnu"

@.str = private unnamed_addr constant [9 x i8] c"%d %s %d\00", align 1

; Function Attrs: nofree nounwind sspstrong uwtable
define dso_local i32 @main(i32 %0, i8** nocapture readnone %1) local_unnamed_addr #0 {
  %3 = alloca [10 x i8], align 1
  %4 = alloca i32, align 4
  %5 = alloca i32, align 4
  %6 = alloca [20 x i8], align 16
  %7 = getelementptr inbounds [10 x i8], [10 x i8]* %3, i64 0, i64 0
  call void @llvm.lifetime.start.p0i8(i64 10, i8* nonnull %7) #5
  %8 = bitcast i32* %4 to i8*
  call void @llvm.lifetime.start.p0i8(i64 4, i8* nonnull %8) #5
  %9 = bitcast i32* %5 to i8*
  call void @llvm.lifetime.start.p0i8(i64 4, i8* nonnull %9) #5
  %10 = call i32 (i8*, ...) @__isoc99_scanf(i8* getelementptr inbounds ([9 x i8], [9 x i8]* @.str, i64 0, i64 0), i32* nonnull %4, i8* nonnull %7, i32* nonnull %5)
  %11 = call i64 @strlen(i8* noundef nonnull %7) #6
  %12 = trunc i64 %11 to i32
  %13 = load i32, i32* %4, align 4
  %14 = icmp sgt i32 %12, 0
  br i1 %14, label %15, label %43

15:                                               ; preds = %2
  %16 = and i64 %11, 4294967295
  br label %17

17:                                               ; preds = %15, %17
  %18 = phi i64 [ 0, %15 ], [ %41, %17 ]
  %19 = phi i32 [ 0, %15 ], [ %40, %17 ]
  %20 = getelementptr inbounds [10 x i8], [10 x i8]* %3, i64 0, i64 %18
  %21 = load i8, i8* %20, align 1, !tbaa !5
  %22 = sext i8 %21 to i32
  %23 = add i8 %21, -48
  %24 = icmp ult i8 %23, 10
  %25 = mul nsw i32 %13, %19
  %26 = add nsw i32 %22, -48
  %27 = add nsw i32 %26, %25
  %28 = select i1 %24, i32 %27, i32 %19
  %29 = add i8 %21, -65
  %30 = icmp ult i8 %29, 26
  %31 = mul nsw i32 %28, %13
  %32 = add nsw i32 %22, -55
  %33 = add nsw i32 %32, %31
  %34 = select i1 %30, i32 %33, i32 %28
  %35 = add i8 %21, -97
  %36 = icmp ult i8 %35, 26
  %37 = mul nsw i32 %34, %13
  %38 = add nsw i32 %22, -87
  %39 = add nsw i32 %38, %37
  %40 = select i1 %36, i32 %39, i32 %34
  %41 = add nuw nsw i64 %18, 1
  %42 = icmp eq i64 %41, %16
  br i1 %42, label %43, label %17, !llvm.loop !8

43:                                               ; preds = %17, %2
  %44 = phi i32 [ 0, %2 ], [ %40, %17 ]
  %45 = getelementptr inbounds [20 x i8], [20 x i8]* %6, i64 0, i64 0
  call void @llvm.lifetime.start.p0i8(i64 20, i8* nonnull %45) #5
  %46 = load i32, i32* %5, align 4, !tbaa !10
  br label %47

47:                                               ; preds = %62, %43
  %48 = phi i64 [ %65, %62 ], [ 0, %43 ]
  %49 = phi i32 [ %52, %62 ], [ %44, %43 ]
  %50 = phi i32 [ %63, %62 ], [ 0, %43 ]
  %51 = srem i32 %49, %46
  %52 = sdiv i32 %49, %46
  %53 = icmp ult i32 %51, 10
  br i1 %53, label %57, label %54

54:                                               ; preds = %47
  %55 = add i32 %51, -10
  %56 = icmp ult i32 %55, 26
  br i1 %56, label %57, label %62

57:                                               ; preds = %54, %47
  %58 = phi i8 [ 48, %47 ], [ 55, %54 ]
  %59 = trunc i32 %51 to i8
  %60 = add nuw nsw i8 %58, %59
  %61 = getelementptr inbounds [20 x i8], [20 x i8]* %6, i64 0, i64 %48
  store i8 %60, i8* %61, align 1, !tbaa !5
  br label %62

62:                                               ; preds = %57, %54
  %63 = add nuw nsw i32 %50, 1
  %64 = icmp eq i32 %52, 0
  %65 = add nuw i64 %48, 1
  br i1 %64, label %66, label %47

66:                                               ; preds = %62
  %67 = zext i32 %63 to i64
  br label %68

68:                                               ; preds = %66, %68
  %69 = phi i64 [ %67, %66 ], [ %79, %68 ]
  %70 = phi i32 [ %63, %66 ], [ %71, %68 ]
  %71 = add nsw i32 %70, -1
  %72 = zext i32 %71 to i64
  %73 = getelementptr inbounds [20 x i8], [20 x i8]* %6, i64 0, i64 %72
  %74 = load i8, i8* %73, align 1, !tbaa !5
  %75 = sext i8 %74 to i32
  %76 = call i32 @putchar(i32 %75)
  %77 = trunc i64 %69 to i32
  %78 = icmp sgt i32 %77, 1
  %79 = add nsw i64 %69, -1
  br i1 %78, label %68, label %80, !llvm.loop !12

80:                                               ; preds = %68
  call void @llvm.lifetime.end.p0i8(i64 20, i8* nonnull %45) #5
  call void @llvm.lifetime.end.p0i8(i64 4, i8* nonnull %9) #5
  call void @llvm.lifetime.end.p0i8(i64 4, i8* nonnull %8) #5
  call void @llvm.lifetime.end.p0i8(i64 10, i8* nonnull %7) #5
  ret i32 0
}

; Function Attrs: argmemonly mustprogress nofree nosync nounwind willreturn
declare void @llvm.lifetime.start.p0i8(i64 immarg, i8* nocapture) #1

; Function Attrs: nofree nounwind
declare noundef i32 @__isoc99_scanf(i8* nocapture noundef readonly, ...) local_unnamed_addr #2

; Function Attrs: argmemonly mustprogress nofree nounwind readonly willreturn
declare i64 @strlen(i8* nocapture) local_unnamed_addr #3

; Function Attrs: argmemonly mustprogress nofree nosync nounwind willreturn
declare void @llvm.lifetime.end.p0i8(i64 immarg, i8* nocapture) #1

; Function Attrs: nofree nounwind
declare noundef i32 @putchar(i32 noundef) local_unnamed_addr #4


!llvm.module.flags = !{!0, !1, !2, !3}
!llvm.ident = !{!4}

!0 = !{i32 1, !"wchar_size", i32 4}
!1 = !{i32 7, !"PIC Level", i32 2}
!2 = !{i32 7, !"PIE Level", i32 2}
!3 = !{i32 7, !"uwtable", i32 1}
!4 = !{!"clang version 13.0.0"}
!5 = !{!6, !6, i64 0}
!6 = !{!"omnipotent char", !7, i64 0}
!7 = !{!"Simple C/C++ TBAA"}
!8 = distinct !{!8, !9}
!9 = !{!"llvm.loop.mustprogress"}
!10 = !{!11, !11, i64 0}
!11 = !{!"int", !6, i64 0}
!12 = distinct !{!12, !9}
